TN:
SF:/Code/cse100_pa1/src/bst/BST.hpp
FN:29,_ZN3BSTISsEC2Ev
FN:29,_ZN3BSTIiEC2Ev
FN:32,_ZN3BSTIiED0Ev
FN:32,_ZN3BSTIiED2Ev
FN:32,_ZN3BSTISsED2Ev
FN:32,_ZN3BSTISsED0Ev
FN:35,_ZN3BSTISsE6insertERKSs
FN:35,_ZN3BSTIiE6insertERKi
FN:40,_ZNK3BSTIiE4findERKi
FN:40,_ZNK3BSTISsE4findERKSs
FN:43,_ZNK3BSTIiE4sizeEv
FN:43,_ZNK3BSTISsE4sizeEv
FN:46,_ZNK3BSTISsE6heightEv
FN:46,_ZNK3BSTIiE6heightEv
FN:49,_ZNK3BSTISsE5emptyEv
FN:49,_ZNK3BSTIiE5emptyEv
FN:52,_ZNK3BSTIiE5beginEv
FN:52,_ZNK3BSTISsE5beginEv
FN:56,_ZNK3BSTISsE3endEv
FN:56,_ZNK3BSTIiE3endEv
FN:59,_ZNK3BSTISsE7inorderEv
FN:59,_ZNK3BSTIiE7inorderEv
FN:66,_ZNK3BSTIiE6heightEP7BSTNodeIiE
FN:66,_ZNK3BSTISsE6heightEP7BSTNodeISsE
FN:75,_ZNK3BSTIiE7inorderEP7BSTNodeIiERSt6vectorIiSaIiEE
FN:75,_ZNK3BSTISsE7inorderEP7BSTNodeISsERSt6vectorISsSaISsEE
FN:82,_ZN3BSTISsE6insertEPP7BSTNodeISsERKSsS3_
FN:82,_ZN3BSTIiE6insertEPP7BSTNodeIiERKiS3_
FN:103,_ZNK3BSTISsE4findEP7BSTNodeISsERKSs
FN:103,_ZNK3BSTIiE4findEP7BSTNodeIiERKi
FN:114,_ZN3BSTISsE5firstEP7BSTNodeISsE
FN:114,_ZN3BSTIiE5firstEP7BSTNodeIiE
FN:122,_ZN3BSTIiE9deleteAllEP7BSTNodeIiE
FN:122,_ZN3BSTISsE9deleteAllEP7BSTNodeISsE
FNDA:0,_ZN3BSTIiED0Ev
FNDA:0,_ZNK3BSTISsE4findEP7BSTNodeISsERKSs
FNDA:10,_ZNK3BSTIiE4findEP7BSTNodeIiERKi
FNDA:9,_ZN3BSTIiED2Ev
FNDA:18,_ZNK3BSTIiE6heightEP7BSTNodeIiE
FNDA:75,_ZN3BSTIiE9deleteAllEP7BSTNodeIiE
FNDA:0,_ZNK3BSTISsE7inorderEv
FNDA:0,_ZNK3BSTISsE3endEv
FNDA:0,_ZN3BSTISsE5firstEP7BSTNodeISsE
FNDA:0,_ZN3BSTISsE6insertERKSs
FNDA:1,_ZNK3BSTIiE4sizeEv
FNDA:0,_ZNK3BSTISsE5emptyEv
FNDA:3,_ZNK3BSTIiE5beginEv
FNDA:0,_ZN3BSTISsE9deleteAllEP7BSTNodeISsE
FNDA:3,_ZN3BSTIiE5firstEP7BSTNodeIiE
FNDA:1,_ZNK3BSTIiE5emptyEv
FNDA:0,_ZNK3BSTISsE5beginEv
FNDA:0,_ZNK3BSTISsE6heightEv
FNDA:1,_ZNK3BSTIiE7inorderEv
FNDA:0,_ZN3BSTISsE6insertEPP7BSTNodeISsERKSsS3_
FNDA:34,_ZN3BSTIiE6insertERKi
FNDA:4,_ZNK3BSTIiE4findERKi
FNDA:14,_ZNK3BSTIiE3endEv
FNDA:2,_ZNK3BSTIiE6heightEv
FNDA:0,_ZNK3BSTISsE4findERKSs
FNDA:94,_ZN3BSTIiE6insertEPP7BSTNodeIiERKiS3_
FNDA:17,_ZNK3BSTIiE7inorderEP7BSTNodeIiERSt6vectorIiSaIiEE
FNDA:0,_ZN3BSTISsEC2Ev
FNDA:0,_ZN3BSTISsED2Ev
FNDA:9,_ZN3BSTIiEC2Ev
FNDA:0,_ZNK3BSTISsE6heightEP7BSTNodeISsE
FNDA:0,_ZNK3BSTISsE7inorderEP7BSTNodeISsERSt6vectorISsSaISsEE
FNDA:0,_ZNK3BSTISsE4sizeEv
FNDA:0,_ZN3BSTISsED0Ev
FNF:34
FNH:16
BRDA:61,4294967295,1,1
BRDA:61,4294967295,2,0
BRDA:67,0,0,10
BRDA:67,0,1,8
BRDA:70,4294967295,0,3
BRDA:70,4294967295,1,5
BRDA:76,0,0,9
BRDA:76,0,1,8
BRDA:85,0,0,33
BRDA:85,0,1,61
BRDA:88,4294967295,0,29
BRDA:88,4294967295,1,4
BRDA:95,0,0,26
BRDA:95,0,1,35
BRDA:97,0,0,34
BRDA:97,0,1,1
BRDA:104,0,0,0
BRDA:104,0,1,10
BRDA:106,0,0,3
BRDA:106,0,1,7
BRDA:108,0,0,3
BRDA:108,0,1,4
BRDA:116,0,0,0
BRDA:116,0,1,3
BRDA:117,0,0,9
BRDA:117,0,1,3
BRDA:123,0,0,42
BRDA:123,0,1,33
BRF:28
BRH:25
DA:29,9
DA:32,18
DA:35,34
DA:36,34
DA:40,8
DA:43,2
DA:46,4
DA:49,2
DA:52,6
DA:56,28
DA:59,1
DA:60,1
DA:61,1
DA:62,1
DA:66,18
DA:67,18
DA:68,8
DA:69,8
DA:70,8
DA:71,3
DA:73,5
DA:75,17
DA:76,17
DA:77,8
DA:78,8
DA:79,8
DA:82,94
DA:84,94
DA:85,94
DA:86,33
DA:88,33
DA:90,33
DA:93,33
DA:95,61
DA:96,26
DA:97,35
DA:98,34
DA:100,1
DA:103,10
DA:104,10
DA:105,0
DA:106,10
DA:107,3
DA:108,7
DA:109,3
DA:111,4
DA:114,3
DA:115,3
DA:116,3
DA:117,12
DA:118,3
DA:122,75
DA:123,75
DA:124,33
DA:125,33
DA:126,33
LF:56
LH:55
end_of_record
TN:
SF:/Code/cse100_pa1/src/bst/BSTIterator.hpp
FN:17,_ZN11BSTIteratorIiEC2EP7BSTNodeIiE
FN:17,_ZN11BSTIteratorISsEC2EP7BSTNodeISsE
FN:20,_ZNK11BSTIteratorISsEdeEv
FN:20,_ZNK11BSTIteratorIiEdeEv
FN:23,_ZN11BSTIteratorISsEppEv
FN:23,_ZN11BSTIteratorIiEppEv
FN:29,_ZN11BSTIteratorIiEppEi
FN:29,_ZN11BSTIteratorISsEppEi
FN:36,_ZNK11BSTIteratorIiEeqERKS0_
FN:36,_ZNK11BSTIteratorISsEeqERKS0_
FN:41,_ZNK11BSTIteratorISsEneERKS0_
FN:41,_ZNK11BSTIteratorIiEneERKS0_
FNDA:25,_ZN11BSTIteratorIiEC2EP7BSTNodeIiE
FNDA:0,_ZN11BSTIteratorISsEppEv
FNDA:0,_ZNK11BSTIteratorISsEneERKS0_
FNDA:1,_ZNK11BSTIteratorIiEeqERKS0_
FNDA:1,_ZN11BSTIteratorIiEppEi
FNDA:0,_ZN11BSTIteratorISsEppEi
FNDA:0,_ZN11BSTIteratorISsEC2EP7BSTNodeISsE
FNDA:0,_ZNK11BSTIteratorISsEdeEv
FNDA:15,_ZNK11BSTIteratorIiEneERKS0_
FNDA:9,_ZNK11BSTIteratorIiEdeEv
FNDA:9,_ZN11BSTIteratorIiEppEv
FNDA:0,_ZNK11BSTIteratorISsEeqERKS0_
FNF:12
FNH:6
BRDA:31,4294967295,1,1
BRDA:31,4294967295,2,0
BRF:2
BRH:1
DA:17,25
DA:20,18
DA:23,9
DA:24,9
DA:25,9
DA:29,1
DA:30,1
DA:31,1
DA:32,1
DA:36,1
DA:37,1
DA:41,15
DA:42,15
LF:13
LH:13
end_of_record
TN:
SF:/Code/cse100_pa1/src/bst/BSTNode.hpp
FN:9,_ZN7BSTNodeISsED2Ev
FN:17,_ZN7BSTNodeISsEC2ERKSs
FN:17,_ZN7BSTNodeIiEC2ERKi
FN:20,_ZN7BSTNodeIiE9successorEv
FN:20,_ZN7BSTNodeISsE9successorEv
FNDA:0,_ZN7BSTNodeISsEC2ERKSs
FNDA:0,_ZN7BSTNodeISsED2Ev
FNDA:10,_ZN7BSTNodeIiE9successorEv
FNDA:0,_ZN7BSTNodeISsE9successorEv
FNDA:35,_ZN7BSTNodeIiEC2ERKi
FNF:5
FNH:2
BRDA:23,0,0,3
BRDA:23,0,1,7
BRDA:25,0,0,4
BRDA:25,0,1,0
BRDA:25,1,2,1
BRDA:25,1,3,3
BRDA:28,0,0,7
BRDA:28,0,1,3
BRDA:28,1,2,3
BRDA:28,1,3,4
BRF:10
BRH:9
DA:9,0
DA:17,35
DA:20,10
DA:21,10
DA:23,10
DA:24,3
DA:25,4
DA:27,7
DA:28,10
DA:30,10
LF:10
LH:9
end_of_record
TN:
SF:/Code/cse100_pa1/src/kdt/KDT.hpp
FN:15,_ZN3KDT6KDNodeD2Ev
FN:21,_ZN3KDT6KDNodeC2E5Point
FN:48,_ZN3KDTC2Ev
FN:56,_ZN3KDTD0Ev
FN:56,_ZN3KDTD2Ev
FN:59,_ZN3KDT5buildERSt6vectorI5PointSaIS1_EE
FN:70,_ZN3KDT19findNearestNeighborER5Point
FN:77,_ZN3KDT11rangeSearchERSt6vectorISt4pairIddESaIS2_EE
FN:84,_ZNK3KDT4sizeEv
FN:87,_ZNK3KDT6heightEv
FN:91,_ZN3KDT12buildSubtreeERSt6vectorI5PointSaIS1_EEjjji
FN:119,_ZN3KDT12findNNHelperEPNS_6KDNodeER5Pointj
FN:158,_ZN3KDT9deleteAllEPNS_6KDNodeE
FN:166,_ZN3KDT15updateThresholdEPNS_6KDNodeER5Point
FN:174,_ZN3KDT14calDistToQueryEPNS_6KDNodeER5Point
FN:183,_ZN3KDT17rangeSearchHelperEPNS_6KDNodeERSt6vectorISt4pairIddESaIS4_EES7_j
FN:286,_ZN3KDT9checkNodeE5PointRSt6vectorISt4pairIddESaIS3_EE
FN:311,_ZN3KDT8updateBBE5Point
FNDA:11755,_ZN3KDT17rangeSearchHelperEPNS_6KDNodeERSt6vectorISt4pairIddESaIS4_EES7_j
FNDA:3,_ZN3KDT19findNearestNeighborER5Point
FNDA:5,_ZN3KDTC2Ev
FNDA:11755,_ZN3KDT9checkNodeE5PointRSt6vectorISt4pairIddESaIS3_EE
FNDA:0,_ZN3KDTD0Ev
FNDA:245,_ZN3KDT9deleteAllEPNS_6KDNodeE
FNDA:7,_ZN3KDT15updateThresholdEPNS_6KDNodeER5Point
FNDA:9,_ZN3KDT12findNNHelperEPNS_6KDNodeER5Pointj
FNDA:155,_ZN3KDT12buildSubtreeERSt6vectorI5PointSaIS1_EEjjji
FNDA:5,_ZNK3KDT6heightEv
FNDA:120,_ZN3KDT6KDNodeC2E5Point
FNDA:501,_ZN3KDT11rangeSearchERSt6vectorISt4pairIddESaIS2_EE
FNDA:5,_ZN3KDTD2Ev
FNDA:1,_ZNK3KDT4sizeEv
FNDA:120,_ZN3KDT8updateBBE5Point
FNDA:7,_ZN3KDT14calDistToQueryEPNS_6KDNodeER5Point
FNDA:5,_ZN3KDT5buildERSt6vectorI5PointSaIS1_EE
FNDA:120,_ZN3KDT6KDNodeD2Ev
FNF:18
FNH:17
BRDA:62,0,0,11
BRDA:62,0,1,5
BRDA:63,4294967295,4,11
BRDA:63,4294967295,5,0
BRDA:93,0,1,35
BRDA:93,0,2,120
BRDA:94,0,1,45
BRDA:94,0,2,75
BRDA:96,0,0,5
BRDA:96,0,1,40
BRDA:97,0,2,45
BRDA:97,0,3,0
BRDA:98,4294967295,2,45
BRDA:98,4294967295,3,0
BRDA:98,0,5,45
BRDA:98,0,6,0
BRDA:98,1,8,45
BRDA:98,1,9,0
BRDA:100,0,4,75
BRDA:100,0,5,0
BRDA:102,4294967295,5,75
BRDA:102,4294967295,6,0
BRDA:103,4294967295,6,75
BRDA:103,4294967295,7,0
BRDA:105,4294967295,2,75
BRDA:105,4294967295,3,0
BRDA:107,0,2,75
BRDA:107,0,3,0
BRDA:108,0,2,75
BRDA:108,0,3,0
BRDA:108,1,5,75
BRDA:108,1,6,0
BRDA:108,2,8,75
BRDA:108,2,9,0
BRDA:111,4294967295,1,75
BRDA:111,4294967295,2,0
BRDA:122,0,2,5
BRDA:122,0,3,4
BRDA:124,0,0,4
BRDA:124,0,1,1
BRDA:131,4294967295,0,1
BRDA:131,4294967295,1,4
BRDA:135,4294967295,0,0
BRDA:135,4294967295,1,1
BRDA:140,0,0,1
BRDA:140,0,1,3
BRDA:146,4294967295,0,2
BRDA:146,4294967295,1,2
BRDA:150,4294967295,0,1
BRDA:150,4294967295,1,1
BRDA:159,0,0,125
BRDA:159,0,1,120
BRDA:162,4294967295,0,120
BRDA:162,4294967295,1,0
BRDA:168,4294967295,0,3
BRDA:168,4294967295,1,4
BRDA:176,1,0,14
BRDA:176,1,1,7
BRDA:195,0,0,2698
BRDA:195,0,1,9057
BRDA:195,1,2,2698
BRDA:195,1,3,0
BRDA:196,0,1,2698
BRDA:196,0,2,0
BRDA:196,1,5,498
BRDA:196,1,6,2200
BRDA:197,0,1,498
BRDA:197,0,2,0
BRDA:214,4294967295,1,6838
BRDA:214,4294967295,2,2219
BRDA:215,0,0,6838
BRDA:215,0,1,0
BRDA:217,4294967295,1,6838
BRDA:217,4294967295,2,0
BRDA:222,0,1,5952
BRDA:222,0,2,3105
BRDA:223,0,0,4416
BRDA:223,0,1,1536
BRDA:225,4294967295,1,4416
BRDA:225,4294967295,2,0
BRDA:230,0,1,9057
BRDA:230,0,2,0
BRDA:230,1,5,927
BRDA:230,1,6,8130
BRDA:231,0,1,927
BRDA:231,0,2,0
BRDA:287,1,1,21489
BRDA:287,1,2,1425
BRDA:288,0,2,16422
BRDA:288,0,3,5067
BRDA:288,0,4,5263
BRDA:288,0,5,11159
BRDA:288,3,6,10330
BRDA:288,3,7,11159
BRDA:312,1,0,340
BRDA:312,1,1,120
BRDA:313,0,2,17
BRDA:313,0,3,323
BRDA:315,0,2,24
BRDA:315,0,3,299
BRF:100
BRH:76
DA:15,240
DA:21,240
DA:48,5
DA:49,5
DA:51,5
DA:53,5
DA:56,10
DA:59,5
DA:60,5
DA:61,5
DA:62,16
DA:63,11
DA:64,11
DA:66,5
DA:67,5
DA:70,3
DA:71,3
DA:72,3
DA:73,3
DA:77,501
DA:78,501
DA:79,501
DA:80,501
DA:84,2
DA:87,10
DA:91,155
DA:93,155
DA:94,120
DA:95,45
DA:96,45
DA:97,45
DA:98,45
DA:100,75
DA:101,75
DA:102,230
DA:103,150
DA:104,150
DA:105,75
DA:106,150
DA:107,75
DA:108,75
DA:109,75
DA:110,75
DA:111,75
DA:113,75
DA:115,75
DA:119,9
DA:122,9
DA:124,5
DA:125,4
DA:126,4
DA:128,1
DA:131,5
DA:132,5
DA:134,1
DA:135,1
DA:136,0
DA:137,0
DA:140,4
DA:141,1
DA:142,1
DA:144,3
DA:146,4
DA:147,4
DA:149,2
DA:150,2
DA:151,1
DA:152,1
DA:155,9
DA:158,245
DA:159,245
DA:160,120
DA:161,120
DA:162,120
DA:166,7
DA:167,7
DA:168,7
DA:169,3
DA:170,3
DA:171,3
DA:173,7
DA:174,7
DA:175,7
DA:176,21
DA:177,14
DA:178,14
DA:180,7
DA:183,11755
DA:186,11755
DA:195,11755
DA:196,2698
DA:197,498
DA:198,2698
DA:210,9057
DA:211,9057
DA:212,9057
DA:214,9057
DA:215,6838
DA:216,6838
DA:217,6838
DA:218,6838
DA:222,9057
DA:223,5952
DA:224,4416
DA:225,4416
DA:226,4416
DA:230,9057
DA:231,927
DA:232,11755
DA:286,11755
DA:287,22914
DA:288,37911
DA:289,16422
DA:290,10330
DA:292,1425
DA:311,120
DA:312,460
DA:313,340
DA:314,17
DA:315,323
DA:316,24
DA:318,120
LF:122
LH:120
end_of_record
TN:
SF:/Code/cse100_pa1/src/kdt/Point.hpp
FN:15,_ZN5PointaSERKS_
FN:15,_ZN5PointC2ERKS_
FN:15,_ZN5PointaSEOS_
FN:15,_ZN5PointC2EOS_
FN:15,_ZN5PointD2Ev
FN:29,_ZN5PointC2Ev
FN:32,_ZN5PointC2ESt6vectorIdSaIdEE
FN:36,_ZN5Point14setDistToQueryERKS_
FN:45,_ZN5Point7valueAtEi
FN:48,_ZNK5PointeqERKS_
FN:59,_ZNK5PointneERKS_
FN:63,_ZlsRSoRK5Point
FN:77,_ZN14CompareValueAtC2Ei
FN:78,_ZN14CompareValueAtclERK5PointS2_
FNDA:75,_ZN14CompareValueAtC2Ei
FNDA:2,_ZNK5PointneERKS_
FNDA:630,_ZN5PointC2ESt6vectorIdSaIdEE
FNDA:2617,_ZN14CompareValueAtclERK5PointS2_
FNDA:1,_ZN5Point7valueAtEi
FNDA:12,_ZN5PointaSERKS_
FNDA:7,_ZN5PointC2Ev
FNDA:6,_ZNK5PointeqERKS_
FNDA:16999,_ZN5PointC2ERKS_
FNDA:1986,_ZN5PointaSEOS_
FNDA:0,_ZlsRSoRK5Point
FNDA:3246,_ZN5PointC2EOS_
FNDA:20882,_ZN5PointD2Ev
FNDA:22,_ZN5Point14setDistToQueryERKS_
FNF:14
FNH:13
BRDA:38,1,0,46
BRDA:38,1,1,22
BRDA:49,0,0,1
BRDA:49,0,1,5
BRDA:50,1,0,9
BRDA:50,1,1,4
BRDA:51,0,3,1
BRDA:51,0,4,8
BRDA:64,0,2,-
BRDA:64,0,3,-
BRDA:65,0,0,-
BRDA:65,0,1,-
BRDA:66,0,2,-
BRDA:66,0,3,-
BRDA:66,1,5,-
BRDA:66,1,6,-
BRDA:66,2,8,-
BRDA:66,2,9,-
BRDA:68,0,2,-
BRDA:68,0,3,-
BRDA:68,1,5,-
BRDA:68,1,6,-
BRDA:68,2,8,-
BRDA:68,2,9,-
BRDA:69,4294967295,1,-
BRDA:69,4294967295,2,-
BRF:26
BRH:8
DA:15,86250
DA:29,14
DA:32,630
DA:33,630
DA:36,22
DA:37,22
DA:38,68
DA:39,46
DA:41,22
DA:42,22
DA:45,2
DA:48,6
DA:49,6
DA:50,13
DA:51,9
DA:52,1
DA:55,4
DA:59,4
DA:63,0
DA:64,0
DA:65,0
DA:66,0
DA:68,0
DA:69,0
DA:70,0
DA:77,75
DA:78,2617
DA:79,2617
LF:28
LH:21
end_of_record
